; Function Attrs: mustprogress uwtable
define void @_ZN26MLSceneGLSharedDataContext24requestRemovePerMeshViewEP7QThreadP10QGLContext(ptr noundef nonnull align 8 dereferenceable(168) %0, ptr noundef readnone %1, ptr noundef %2) local_unnamed_addr #9 align 2 {
  %4 = tail call noundef ptr @_ZNK7QObject6threadEv(ptr noundef nonnull align 8 dereferenceable(16) %0)
  %.not = icmp eq ptr %4, %1
  br i1 %.not, label %6, label %5

5:                                                ; preds = %3
  tail call void @_ZN26MLSceneGLSharedDataContext26removePerMeshViewRequestMTEP10QGLContext(ptr noundef nonnull align 8 dereferenceable(168) %0, ptr noundef %2)
  br label %_ZN26MLSceneGLSharedDataContext10removeViewEP10QGLContext.exit

6:                                                ; preds = %3
  %7 = tail call noundef ptr @_ZN10QGLContext14currentContextEv()
  tail call void @_ZN9QGLWidget11makeCurrentEv(ptr noundef nonnull align 8 dereferenceable(48) %0)
  %8 = getelementptr inbounds i8, ptr %0, i64 80
  %9 = load ptr, ptr %8, align 8
  %10 = getelementptr inbounds i8, ptr %0, i64 64
  %.not910.i = icmp eq ptr %9, %10
  br i1 %.not910.i, label %._crit_edge.i, label %.lr.ph.i

.lr.ph.i:                                         ; preds = %6, %15
  %.sroa.06.011.i = phi ptr [ %16, %15 ], [ %9, %6 ]
  %11 = getelementptr inbounds i8, ptr %.sroa.06.011.i, i64 40
  %12 = load ptr, ptr %11, align 8
  %.not.i = icmp eq ptr %12, null
  br i1 %.not.i, label %15, label %13

13:                                               ; preds = %.lr.ph.i
  tail call void @_ZN3vcg48QtThreadSafeGLMeshAttributesMultiViewerBOManagerI6CMeshOP10QGLContext18MLPerViewGLOptionsE10removeViewES3_(ptr noundef nonnull align 8 dereferenceable(512) %12, ptr noundef %2)
  %14 = tail call noundef zeroext i1 @_ZN3vcg48QtThreadSafeGLMeshAttributesMultiViewerBOManagerI6CMeshOP10QGLContext18MLPerViewGLOptionsE13manageBuffersEv(ptr noundef nonnull align 8 dereferenceable(512) %12)
  br label %15

15:                                               ; preds = %13, %.lr.ph.i
  %16 = tail call noundef ptr @_ZSt18_Rb_tree_incrementPSt18_Rb_tree_node_base(ptr noundef nonnull %.sroa.06.011.i) #27
  %.not9.i = icmp eq ptr %16, %10
  br i1 %.not9.i, label %._crit_edge.i, label %.lr.ph.i, !llvm.loop !223

._crit_edge.i:                                    ; preds = %15, %6
  tail call void @_ZN9QGLWidget11doneCurrentEv(ptr noundef nonnull align 8 dereferenceable(48) %0)
  %.not.i.i = icmp eq ptr %7, null
  br i1 %.not.i.i, label %_ZN26MLSceneGLSharedDataContext10removeViewEP10QGLContext.exit, label %17

17:                                               ; preds = %._crit_edge.i
  %18 = load ptr, ptr %7, align 8
  %19 = getelementptr inbounds i8, ptr %18, i64 24
  %20 = load ptr, ptr %19, align 8
  tail call void %20(ptr noundef nonnull align 8 dereferenceable(16) %7)
  br label %_ZN26MLSceneGLSharedDataContext10removeViewEP10QGLContext.exit

_ZN26MLSceneGLSharedDataContext10removeViewEP10QGLContext.exit: ; preds = %17, %._crit_edge.i, %5
  ret void
}